; ModuleID = 'source-C-CXX/18/292.c'
source_filename = "source-C-CXX/18/292.c"
target datalayout = "e-m:e-p270:32:32-p271:32:32-p272:64:64-i64:64-f80:128-n8:16:32:64-S128"
target triple = "x86_64-pc-linux-gnu"

%struct._IO_FILE = type { i32, i8*, i8*, i8*, i8*, i8*, i8*, i8*, i8*, i8*, i8*, i8*, %struct._IO_marker*, %struct._IO_FILE*, i32, i32, i64, i16, i8, [1 x i8], i8*, i64, %struct._IO_codecvt*, %struct._IO_wide_data*, %struct._IO_FILE*, i8*, i64, i32, [20 x i8] }
%struct._IO_marker = type opaque
%struct._IO_codecvt = type opaque
%struct._IO_wide_data = type opaque

@.str = private unnamed_addr constant [3 x i8] c"%s\00", align 1
@stdin = external local_unnamed_addr global %struct._IO_FILE*, align 8

; Function Attrs: nofree nounwind sspstrong uwtable
define dso_local void @main() local_unnamed_addr #0 {
  %1 = alloca [20 x i8], align 16
  %2 = alloca [20 x i8], align 16
  %3 = alloca [100 x [20 x i8]], align 16
  %4 = getelementptr inbounds [20 x i8], [20 x i8]* %1, i64 0, i64 0
  call void @llvm.lifetime.start.p0i8(i64 20, i8* nonnull %4) #5
  %5 = getelementptr inbounds [20 x i8], [20 x i8]* %2, i64 0, i64 0
  call void @llvm.lifetime.start.p0i8(i64 20, i8* nonnull %5) #5
  %6 = getelementptr inbounds [100 x [20 x i8]], [100 x [20 x i8]]* %3, i64 0, i64 0, i64 0
  call void @llvm.lifetime.start.p0i8(i64 2000, i8* nonnull %6) #5
  br label %7

7:                                                ; preds = %7, %0
  %8 = phi i64 [ %14, %7 ], [ 0, %0 ]
  %9 = getelementptr inbounds [100 x [20 x i8]], [100 x [20 x i8]]* %3, i64 0, i64 %8
  %10 = call i32 (i8*, ...) @__isoc99_scanf(i8* getelementptr inbounds ([3 x i8], [3 x i8]* @.str, i64 0, i64 0), [20 x i8]* nonnull %9)
  %11 = load %struct._IO_FILE*, %struct._IO_FILE** @stdin, align 8, !tbaa !5
  %12 = call i32 @getc(%struct._IO_FILE* %11) #5
  %13 = icmp eq i32 %12, 32
  %14 = add nuw i64 %8, 1
  br i1 %13, label %7, label %15

15:                                               ; preds = %7
  %16 = call i32 (i8*, ...) @__isoc99_scanf(i8* getelementptr inbounds ([3 x i8], [3 x i8]* @.str, i64 0, i64 0), [20 x i8]* nonnull %1)
  %17 = call i32 (i8*, ...) @__isoc99_scanf(i8* getelementptr inbounds ([3 x i8], [3 x i8]* @.str, i64 0, i64 0), [20 x i8]* nonnull %2)
  %18 = add i64 %8, 1
  %19 = and i64 %18, 4294967295
  br label %20

20:                                               ; preds = %15, %26
  %21 = phi i64 [ 0, %15 ], [ %27, %26 ]
  %22 = getelementptr inbounds [100 x [20 x i8]], [100 x [20 x i8]]* %3, i64 0, i64 %21, i64 0
  %23 = call i32 @strcmp(i8* noundef nonnull %4, i8* noundef nonnull %22) #6
  %24 = icmp eq i32 %23, 0
  br i1 %24, label %25, label %26

25:                                               ; preds = %20
  store i8 0, i8* %22, align 4, !tbaa !9
  br label %26

26:                                               ; preds = %20, %25
  %27 = add nuw nsw i64 %21, 1
  %28 = icmp eq i64 %27, %19
  br i1 %28, label %29, label %20, !llvm.loop !10

29:                                               ; preds = %26
  %30 = and i64 %8, 4294967295
  br label %31

31:                                               ; preds = %29, %41
  %32 = phi i64 [ 0, %29 ], [ %42, %41 ]
  %33 = getelementptr inbounds [100 x [20 x i8]], [100 x [20 x i8]]* %3, i64 0, i64 %32, i64 0
  %34 = load i8, i8* %33, align 4, !tbaa !9
  %35 = icmp eq i8 %34, 0
  %36 = select i1 %35, i8* %5, i8* %33
  %37 = call i32 (i8*, ...) @printf(i8* nonnull dereferenceable(1) getelementptr inbounds ([3 x i8], [3 x i8]* @.str, i64 0, i64 0), i8* nonnull %36)
  %38 = icmp eq i64 %32, %30
  br i1 %38, label %41, label %39

39:                                               ; preds = %31
  %40 = call i32 @putchar(i32 32)
  br label %41

41:                                               ; preds = %31, %39
  %42 = add nuw nsw i64 %32, 1
  %43 = icmp eq i64 %42, %19
  br i1 %43, label %44, label %31, !llvm.loop !12

44:                                               ; preds = %41
  call void @llvm.lifetime.end.p0i8(i64 2000, i8* nonnull %6) #5
  call void @llvm.lifetime.end.p0i8(i64 20, i8* nonnull %5) #5
  call void @llvm.lifetime.end.p0i8(i64 20, i8* nonnull %4) #5
  ret void
}

; Function Attrs: argmemonly mustprogress nofree nosync nounwind willreturn
declare void @llvm.lifetime.start.p0i8(i64 immarg, i8* nocapture) #1

; Function Attrs: nofree nounwind
declare noundef i32 @__isoc99_scanf(i8* nocapture noundef readonly, ...) local_unnamed_addr #2

; Function Attrs: argmemonly mustprogress nofree nounwind readonly willreturn
declare i32 @strcmp(i8* nocapture, i8* nocapture) local_unnamed_addr #3

; Function Attrs: nofree nounwind
declare noundef i32 @printf(i8* nocapture noundef readonly, ...) local_unnamed_addr #2

; Function Attrs: argmemonly mustprogress nofree nosync nounwind willreturn
declare void @llvm.lifetime.end.p0i8(i64 immarg, i8* nocapture) #1

; Function Attrs: nofree nounwind
declare noundef i32 @getc(%struct._IO_FILE* nocapture noundef) local_unnamed_addr #2

; Function Attrs: nofree nounwind
declare noundef i32 @putchar(i32 noundef) local_unnamed_addr #4


!llvm.module.flags = !{!0, !1, !2, !3}
!llvm.ident = !{!4}

!0 = !{i32 1, !"wchar_size", i32 4}
!1 = !{i32 7, !"PIC Level", i32 2}
!2 = !{i32 7, !"PIE Level", i32 2}
!3 = !{i32 7, !"uwtable", i32 1}
!4 = !{!"clang version 13.0.0"}
!5 = !{!6, !6, i64 0}
!6 = !{!"any pointer", !7, i64 0}
!7 = !{!"omnipotent char", !8, i64 0}
!8 = !{!"Simple C/C++ TBAA"}
!9 = !{!7, !7, i64 0}
!10 = distinct !{!10, !11}
!11 = !{!"llvm.loop.mustprogress"}
!12 = distinct !{!12, !11}
